target datalayout = "e-m:e-p270:32:32-p271:32:32-p272:64:64-i64:64-i128:128-f80:128-n8:16:32:64-S128"
target triple = "x86_64-pc-linux-gnu"

%"class.icu_77::CaseFoldingUCharIterator" = type { ptr, i64, i64, ptr, i32, i32 }

; Function Attrs: mustprogress uwtable
define noundef i32 @_ZN6icu_7724CaseFoldingUCharIterator4nextEv(ptr noundef nonnull align 8 dereferenceable(40) %0) #1 align 2 {
  %2 = alloca i32, align 4
  %3 = alloca ptr, align 8
  %4 = alloca i32, align 4
  %5 = alloca i32, align 4
  %6 = alloca i32, align 4
  %7 = alloca i16, align 2
  %8 = alloca i16, align 2
  store ptr %0, ptr %3, align 8, !tbaa !28
  %9 = load ptr, ptr %3, align 8
  call void @llvm.lifetime.start.p0(i64 4, ptr %4) #4
  call void @llvm.lifetime.start.p0(i64 4, ptr %5) #4
  %10 = getelementptr inbounds nuw %"class.icu_77::CaseFoldingUCharIterator", ptr %9, i32 0, i32 3
  %11 = load ptr, ptr %10, align 8, !tbaa !36
  %12 = icmp eq ptr %11, null
  br i1 %12, label %13, label %90

13:                                               ; preds = %1
  %14 = getelementptr inbounds nuw %"class.icu_77::CaseFoldingUCharIterator", ptr %9, i32 0, i32 1
  %15 = load i64, ptr %14, align 8, !tbaa !34
  %16 = getelementptr inbounds nuw %"class.icu_77::CaseFoldingUCharIterator", ptr %9, i32 0, i32 2
  %17 = load i64, ptr %16, align 8, !tbaa !35
  %18 = icmp sge i64 %15, %17
  br i1 %18, label %19, label %20

19:                                               ; preds = %13
  store i32 -1, ptr %2, align 4
  store i32 1, ptr %6, align 4
  br label %144

20:                                               ; preds = %13
  br label %21

21:                                               ; preds = %20
  %22 = getelementptr inbounds nuw %"class.icu_77::CaseFoldingUCharIterator", ptr %9, i32 0, i32 0
  %23 = load ptr, ptr %22, align 8, !tbaa !32
  %24 = getelementptr inbounds nuw %"class.icu_77::CaseFoldingUCharIterator", ptr %9, i32 0, i32 1
  %25 = load i64, ptr %24, align 8, !tbaa !34
  %26 = add nsw i64 %25, 1
  store i64 %26, ptr %24, align 8, !tbaa !34
  %27 = getelementptr inbounds i16, ptr %23, i64 %25
  %28 = load i16, ptr %27, align 2, !tbaa !22
  %29 = zext i16 %28 to i32
  store i32 %29, ptr %5, align 4, !tbaa !24
  %30 = load i32, ptr %5, align 4, !tbaa !24
  %31 = and i32 %30, -1024
  %32 = icmp eq i32 %31, 55296
  br i1 %32, label %33, label %60

33:                                               ; preds = %21
  call void @llvm.lifetime.start.p0(i64 2, ptr %7) #4
  %34 = getelementptr inbounds nuw %"class.icu_77::CaseFoldingUCharIterator", ptr %9, i32 0, i32 1
  %35 = load i64, ptr %34, align 8, !tbaa !34
  %36 = getelementptr inbounds nuw %"class.icu_77::CaseFoldingUCharIterator", ptr %9, i32 0, i32 2
  %37 = load i64, ptr %36, align 8, !tbaa !35
  %38 = icmp ne i64 %35, %37
  br i1 %38, label %39, label %59

39:                                               ; preds = %33
  %40 = getelementptr inbounds nuw %"class.icu_77::CaseFoldingUCharIterator", ptr %9, i32 0, i32 0
  %41 = load ptr, ptr %40, align 8, !tbaa !32
  %42 = getelementptr inbounds nuw %"class.icu_77::CaseFoldingUCharIterator", ptr %9, i32 0, i32 1
  %43 = load i64, ptr %42, align 8, !tbaa !34
  %44 = getelementptr inbounds i16, ptr %41, i64 %43
  %45 = load i16, ptr %44, align 2, !tbaa !22
  store i16 %45, ptr %7, align 2, !tbaa !26
  %46 = zext i16 %45 to i32
  %47 = and i32 %46, -1024
  %48 = icmp eq i32 %47, 56320
  br i1 %48, label %49, label %59

49:                                               ; preds = %39
  %50 = getelementptr inbounds nuw %"class.icu_77::CaseFoldingUCharIterator", ptr %9, i32 0, i32 1
  %51 = load i64, ptr %50, align 8, !tbaa !34
  %52 = add nsw i64 %51, 1
  store i64 %52, ptr %50, align 8, !tbaa !34
  %53 = load i32, ptr %5, align 4, !tbaa !24
  %54 = shl i32 %53, 10
  %55 = load i16, ptr %7, align 2, !tbaa !26
  %56 = zext i16 %55 to i32
  %57 = add nsw i32 %54, %56
  %58 = sub nsw i32 %57, 56613888
  store i32 %58, ptr %5, align 4, !tbaa !24
  br label %59

59:                                               ; preds = %49, %39, %33
  call void @llvm.lifetime.end.p0(i64 2, ptr %7) #4
  br label %60

60:                                               ; preds = %59, %21
  br label %61

61:                                               ; preds = %60
  br label %62

62:                                               ; preds = %61
  %63 = load i32, ptr %5, align 4, !tbaa !24
  %64 = getelementptr inbounds nuw %"class.icu_77::CaseFoldingUCharIterator", ptr %9, i32 0, i32 3
  %65 = call i32 @ucase_toFullFolding_77(i32 noundef %63, ptr noundef %64, i32 noundef 0)
  %66 = getelementptr inbounds nuw %"class.icu_77::CaseFoldingUCharIterator", ptr %9, i32 0, i32 4
  store i32 %65, ptr %66, align 8, !tbaa !37
  %67 = getelementptr inbounds nuw %"class.icu_77::CaseFoldingUCharIterator", ptr %9, i32 0, i32 4
  %68 = load i32, ptr %67, align 8, !tbaa !37
  %69 = icmp sge i32 %68, 31
  br i1 %69, label %74, label %70

70:                                               ; preds = %62
  %71 = getelementptr inbounds nuw %"class.icu_77::CaseFoldingUCharIterator", ptr %9, i32 0, i32 4
  %72 = load i32, ptr %71, align 8, !tbaa !37
  %73 = icmp slt i32 %72, 0
  br i1 %73, label %74, label %88

74:                                               ; preds = %70, %62
  %75 = getelementptr inbounds nuw %"class.icu_77::CaseFoldingUCharIterator", ptr %9, i32 0, i32 4
  %76 = load i32, ptr %75, align 8, !tbaa !37
  %77 = icmp slt i32 %76, 0
  br i1 %77, label %78, label %83

78:                                               ; preds = %74
  %79 = getelementptr inbounds nuw %"class.icu_77::CaseFoldingUCharIterator", ptr %9, i32 0, i32 4
  %80 = load i32, ptr %79, align 8, !tbaa !37
  %81 = xor i32 %80, -1
  %82 = getelementptr inbounds nuw %"class.icu_77::CaseFoldingUCharIterator", ptr %9, i32 0, i32 4
  store i32 %81, ptr %82, align 8, !tbaa !37
  br label %83

83:                                               ; preds = %78, %74
  %84 = getelementptr inbounds nuw %"class.icu_77::CaseFoldingUCharIterator", ptr %9, i32 0, i32 4
  %85 = load i32, ptr %84, align 8, !tbaa !37
  store i32 %85, ptr %4, align 4, !tbaa !24
  %86 = getelementptr inbounds nuw %"class.icu_77::CaseFoldingUCharIterator", ptr %9, i32 0, i32 3
  store ptr null, ptr %86, align 8, !tbaa !36
  %87 = load i32, ptr %4, align 4, !tbaa !24
  store i32 %87, ptr %2, align 4
  store i32 1, ptr %6, align 4
  br label %144

88:                                               ; preds = %70
  %89 = getelementptr inbounds nuw %"class.icu_77::CaseFoldingUCharIterator", ptr %9, i32 0, i32 5
  store i32 0, ptr %89, align 4, !tbaa !38
  br label %90

90:                                               ; preds = %88, %1
  br label %91

91:                                               ; preds = %90
  %92 = getelementptr inbounds nuw %"class.icu_77::CaseFoldingUCharIterator", ptr %9, i32 0, i32 3
  %93 = load ptr, ptr %92, align 8, !tbaa !36
  %94 = getelementptr inbounds nuw %"class.icu_77::CaseFoldingUCharIterator", ptr %9, i32 0, i32 5
  %95 = load i32, ptr %94, align 4, !tbaa !38
  %96 = add nsw i32 %95, 1
  store i32 %96, ptr %94, align 4, !tbaa !38
  %97 = sext i32 %95 to i64
  %98 = getelementptr inbounds i16, ptr %93, i64 %97
  %99 = load i16, ptr %98, align 2, !tbaa !22
  %100 = zext i16 %99 to i32
  store i32 %100, ptr %4, align 4, !tbaa !24
  %101 = load i32, ptr %4, align 4, !tbaa !24
  %102 = and i32 %101, -1024
  %103 = icmp eq i32 %102, 55296
  br i1 %103, label %104, label %132

104:                                              ; preds = %91
  call void @llvm.lifetime.start.p0(i64 2, ptr %8) #4
  %105 = getelementptr inbounds nuw %"class.icu_77::CaseFoldingUCharIterator", ptr %9, i32 0, i32 5
  %106 = load i32, ptr %105, align 4, !tbaa !38
  %107 = getelementptr inbounds nuw %"class.icu_77::CaseFoldingUCharIterator", ptr %9, i32 0, i32 4
  %108 = load i32, ptr %107, align 8, !tbaa !37
  %109 = icmp ne i32 %106, %108
  br i1 %109, label %110, label %131

110:                                              ; preds = %104
  %111 = getelementptr inbounds nuw %"class.icu_77::CaseFoldingUCharIterator", ptr %9, i32 0, i32 3
  %112 = load ptr, ptr %111, align 8, !tbaa !36
  %113 = getelementptr inbounds nuw %"class.icu_77::CaseFoldingUCharIterator", ptr %9, i32 0, i32 5
  %114 = load i32, ptr %113, align 4, !tbaa !38
  %115 = sext i32 %114 to i64
  %116 = getelementptr inbounds i16, ptr %112, i64 %115
  %117 = load i16, ptr %116, align 2, !tbaa !22
  store i16 %117, ptr %8, align 2, !tbaa !26
  %118 = zext i16 %117 to i32
  %119 = and i32 %118, -1024
  %120 = icmp eq i32 %119, 56320
  br i1 %120, label %121, label %131

121:                                              ; preds = %110
  %122 = getelementptr inbounds nuw %"class.icu_77::CaseFoldingUCharIterator", ptr %9, i32 0, i32 5
  %123 = load i32, ptr %122, align 4, !tbaa !38
  %124 = add nsw i32 %123, 1
  store i32 %124, ptr %122, align 4, !tbaa !38
  %125 = load i32, ptr %4, align 4, !tbaa !24
  %126 = shl i32 %125, 10
  %127 = load i16, ptr %8, align 2, !tbaa !26
  %128 = zext i16 %127 to i32
  %129 = add nsw i32 %126, %128
  %130 = sub nsw i32 %129, 56613888
  store i32 %130, ptr %4, align 4, !tbaa !24
  br label %131

131:                                              ; preds = %121, %110, %104
  call void @llvm.lifetime.end.p0(i64 2, ptr %8) #4
  br label %132

132:                                              ; preds = %131, %91
  br label %133

133:                                              ; preds = %132
  br label %134

134:                                              ; preds = %133
  %135 = getelementptr inbounds nuw %"class.icu_77::CaseFoldingUCharIterator", ptr %9, i32 0, i32 5
  %136 = load i32, ptr %135, align 4, !tbaa !38
  %137 = getelementptr inbounds nuw %"class.icu_77::CaseFoldingUCharIterator", ptr %9, i32 0, i32 4
  %138 = load i32, ptr %137, align 8, !tbaa !37
  %139 = icmp sge i32 %136, %138
  br i1 %139, label %140, label %142

140:                                              ; preds = %134
  %141 = getelementptr inbounds nuw %"class.icu_77::CaseFoldingUCharIterator", ptr %9, i32 0, i32 3
  store ptr null, ptr %141, align 8, !tbaa !36
  br label %142

142:                                              ; preds = %140, %134
  %143 = load i32, ptr %4, align 4, !tbaa !24
  store i32 %143, ptr %2, align 4
  store i32 1, ptr %6, align 4
  br label %144

144:                                              ; preds = %142, %83, %19
  call void @llvm.lifetime.end.p0(i64 4, ptr %5) #4
  call void @llvm.lifetime.end.p0(i64 4, ptr %4) #4
  %145 = load i32, ptr %2, align 4
  ret i32 %145
}