; Function Attrs: mustprogress uwtable
define noundef range(i32 -1, -2147483648) i32 @_ZN6icu_7724CaseFoldingUCharIterator4nextEv(ptr noundef nonnull align 8 dereferenceable(40) %0) local_unnamed_addr #2 align 2 {
  %2 = getelementptr inbounds nuw i8, ptr %0, i64 24
  %3 = load ptr, ptr %2, align 8, !tbaa !27
  %4 = icmp eq ptr %3, null
  br i1 %4, label %5, label %._crit_edge

._crit_edge:                                      ; preds = %1
  %.phi.trans.insert = getelementptr inbounds nuw i8, ptr %0, i64 36
  %.pre24 = load i32, ptr %.phi.trans.insert, align 4, !tbaa !29
  %.phi.trans.insert25 = getelementptr inbounds nuw i8, ptr %0, i64 32
  %.pre26 = load i32, ptr %.phi.trans.insert25, align 8
  br label %37

5:                                                ; preds = %1
  %6 = getelementptr inbounds nuw i8, ptr %0, i64 8
  %7 = load i64, ptr %6, align 8, !tbaa !25
  %8 = getelementptr inbounds nuw i8, ptr %0, i64 16
  %9 = load i64, ptr %8, align 8, !tbaa !26
  %.not = icmp slt i64 %7, %9
  br i1 %.not, label %10, label %63

10:                                               ; preds = %5
  %11 = load ptr, ptr %0, align 8, !tbaa !23
  %12 = add nsw i64 %7, 1
  store i64 %12, ptr %6, align 8, !tbaa !25
  %13 = getelementptr inbounds i16, ptr %11, i64 %7
  %14 = load i16, ptr %13, align 2, !tbaa !21
  %15 = zext i16 %14 to i32
  %16 = and i32 %15, 64512
  %17 = icmp ne i32 %16, 55296
  %.not18 = icmp eq i64 %12, %9
  %or.cond21 = select i1 %17, i1 true, i1 %.not18
  br i1 %or.cond21, label %29, label %18

18:                                               ; preds = %10
  %19 = getelementptr inbounds i16, ptr %11, i64 %12
  %20 = load i16, ptr %19, align 2, !tbaa !21
  %21 = zext i16 %20 to i32
  %22 = and i32 %21, 64512
  %23 = icmp eq i32 %22, 56320
  br i1 %23, label %24, label %29

24:                                               ; preds = %18
  %25 = add nsw i64 %7, 2
  store i64 %25, ptr %6, align 8, !tbaa !25
  %26 = shl nuw nsw i32 %15, 10
  %27 = add nsw i32 %26, -56613888
  %28 = add nuw nsw i32 %27, %21
  br label %29

29:                                               ; preds = %18, %24, %10
  %.112 = phi i32 [ %15, %10 ], [ %28, %24 ], [ %15, %18 ]
  %30 = tail call i32 @ucase_toFullFolding_77(i32 noundef %.112, ptr noundef nonnull %2, i32 noundef 0)
  %31 = getelementptr inbounds nuw i8, ptr %0, i64 32
  store i32 %30, ptr %31, align 8, !tbaa !28
  %or.cond = icmp ugt i32 %30, 30
  br i1 %or.cond, label %32, label %36

32:                                               ; preds = %29
  %33 = icmp slt i32 %30, 0
  br i1 %33, label %34, label %.sink.split

34:                                               ; preds = %32
  %35 = xor i32 %30, -1
  store i32 %35, ptr %31, align 8, !tbaa !28
  br label %.sink.split

36:                                               ; preds = %29
  %.pre = load ptr, ptr %2, align 8, !tbaa !27
  br label %37

37:                                               ; preds = %._crit_edge, %36
  %38 = phi i32 [ %.pre26, %._crit_edge ], [ %30, %36 ]
  %39 = phi i32 [ %.pre24, %._crit_edge ], [ 0, %36 ]
  %40 = phi ptr [ %3, %._crit_edge ], [ %.pre, %36 ]
  %41 = getelementptr inbounds nuw i8, ptr %0, i64 36
  %42 = add nsw i32 %39, 1
  store i32 %42, ptr %41, align 4, !tbaa !29
  %43 = sext i32 %39 to i64
  %44 = getelementptr inbounds i16, ptr %40, i64 %43
  %45 = load i16, ptr %44, align 2, !tbaa !21
  %46 = zext i16 %45 to i32
  %47 = and i32 %46, 64512
  %48 = icmp ne i32 %47, 55296
  %.not19 = icmp eq i32 %42, %38
  %or.cond23 = select i1 %48, i1 true, i1 %.not19
  br i1 %or.cond23, label %61, label %49

49:                                               ; preds = %37
  %50 = sext i32 %42 to i64
  %51 = getelementptr inbounds i16, ptr %40, i64 %50
  %52 = load i16, ptr %51, align 2, !tbaa !21
  %53 = zext i16 %52 to i32
  %54 = and i32 %53, 64512
  %55 = icmp eq i32 %54, 56320
  br i1 %55, label %56, label %61

56:                                               ; preds = %49
  %57 = add nsw i32 %39, 2
  store i32 %57, ptr %41, align 4, !tbaa !29
  %58 = shl nuw nsw i32 %46, 10
  %59 = add nsw i32 %58, -56613888
  %60 = add nuw nsw i32 %59, %53
  br label %61

61:                                               ; preds = %49, %56, %37
  %62 = phi i32 [ %42, %37 ], [ %57, %56 ], [ %42, %49 ]
  %.1 = phi i32 [ %46, %37 ], [ %60, %56 ], [ %46, %49 ]
  %.not20 = icmp slt i32 %62, %38
  br i1 %.not20, label %63, label %.sink.split

.sink.split:                                      ; preds = %61, %32, %34
  %.0.ph = phi i32 [ %35, %34 ], [ %30, %32 ], [ %.1, %61 ]
  store ptr null, ptr %2, align 8, !tbaa !27
  br label %63

63:                                               ; preds = %.sink.split, %61, %5
  %.0 = phi i32 [ -1, %5 ], [ %.1, %61 ], [ %.0.ph, %.sink.split ]
  ret i32 %.0
}